target datalayout = "e-m:e-p270:32:32-p271:32:32-p272:64:64-i64:64-i128:128-f80:128-n8:16:32:64-S128"
target triple = "x86_64-pc-linux-gnu"

%class.JavaCallWrapper = type { ptr, ptr, ptr, ptr, %class.JavaFrameAnchor, ptr }
%class.JavaFrameAnchor = type { ptr, ptr, ptr }

; Function Attrs: mustprogress nounwind uwtable
define linkonce_odr hidden noundef ptr @_ZNK15JavaCallWrapper7handlesEv(ptr noundef nonnull align 8 dereferenceable(64) %0) #1 comdat align 2 {
  %2 = alloca ptr, align 8
  store ptr %0, ptr %2, align 8
  %3 = load ptr, ptr %2, align 8
  %4 = getelementptr inbounds %class.JavaCallWrapper, ptr %3, i32 0, i32 1
  %5 = load ptr, ptr %4, align 8
  ret ptr %5
}

; Function Attrs: mustprogress nounwind uwtable
define hidden void @_ZN15JavaCallWrapper7oops_doEP10OopClosure(ptr noundef nonnull align 8 dereferenceable(64) %0, ptr noundef %1) #1 align 2 {
  %3 = alloca ptr, align 8
  %4 = alloca ptr, align 8
  store ptr %0, ptr %3, align 8
  store ptr %1, ptr %4, align 8
  %5 = load ptr, ptr %3, align 8
  %6 = load ptr, ptr %4, align 8
  %7 = getelementptr inbounds %class.JavaCallWrapper, ptr %5, i32 0, i32 3
  %8 = load ptr, ptr %6, align 8
  %9 = getelementptr inbounds ptr, ptr %8, i64 0
  %10 = load ptr, ptr %9, align 8
  call void %10(ptr noundef nonnull align 8 dereferenceable(8) %6, ptr noundef %7)
  %11 = call noundef ptr @_ZNK15JavaCallWrapper7handlesEv(ptr noundef nonnull align 8 dereferenceable(64) %5)
  %12 = load ptr, ptr %4, align 8
  call void @_ZN14JNIHandleBlock7oops_doEP10OopClosure(ptr noundef nonnull align 8 dereferenceable(296) %11, ptr noundef %12)
  ret void
}