; Function Attrs: mustprogress nounwind uwtable
define hidden void @_ZN15JavaCallWrapper7oops_doEP10OopClosure(ptr noundef nonnull align 8 dereferenceable(64) %0, ptr noundef %1) local_unnamed_addr #0 align 2 {
  %3 = getelementptr inbounds i8, ptr %0, i64 24
  %4 = load ptr, ptr %1, align 8
  %5 = load ptr, ptr %4, align 8
  tail call void %5(ptr noundef nonnull align 8 dereferenceable(8) %1, ptr noundef nonnull %3) #8
  %6 = getelementptr inbounds i8, ptr %0, i64 8
  %7 = load ptr, ptr %6, align 8
  tail call void @_ZN14JNIHandleBlock7oops_doEP10OopClosure(ptr noundef nonnull align 8 dereferenceable(296) %7, ptr noundef nonnull %1) #8
  ret void
}